target datalayout = "e-m:e-p270:32:32-p271:32:32-p272:64:64-i64:64-i128:128-f80:128-n8:16:32:64-S128"
target triple = "x86_64-pc-linux-gnu"

@.str.12 = private unnamed_addr constant [7 x i8] c"t == 0\00", align 1
@.str.13 = private unnamed_addr constant [36 x i8] c"../cpython/Modules/_testcapi/time.c\00", align 1
@.str.14 = private unnamed_addr constant [9 x i8] c"res == 0\00", align 1
@PyExc_RuntimeError = external global ptr, align 8
@__PRETTY_FUNCTION__.test_pytime_time_raw = private unnamed_addr constant [55 x i8] c"PyObject *test_pytime_time_raw(PyObject *, PyObject *)\00", align 1
@.str.17 = private unnamed_addr constant [24 x i8] c"PyTime_TimeRaw() failed\00", align 1

; Function Attrs: nounwind uwtable
define internal ptr @pytime_as_float(i64 noundef %0) #0 {
  %2 = alloca i64, align 8
  store i64 %0, ptr %2, align 8, !tbaa !8
  %3 = load i64, ptr %2, align 8, !tbaa !8
  %4 = call double @PyTime_AsSecondsDouble(i64 noundef %3)
  %5 = call ptr @PyFloat_FromDouble(double noundef %4)
  ret ptr %5
}

; Function Attrs: nounwind uwtable
define internal ptr @test_pytime_time_raw(ptr noundef %0, ptr noundef %1) #0 {
  %3 = alloca ptr, align 8
  %4 = alloca ptr, align 8
  %5 = alloca ptr, align 8
  %6 = alloca i64, align 8
  %7 = alloca i32, align 4
  %8 = alloca ptr, align 8
  %9 = alloca i32, align 4
  store ptr %0, ptr %4, align 8, !tbaa !3
  store ptr %1, ptr %5, align 8, !tbaa !3
  call void @llvm.lifetime.start.p0(i64 8, ptr %6) #5
  call void @llvm.lifetime.start.p0(i64 4, ptr %7) #5
  call void @llvm.lifetime.start.p0(i64 8, ptr %8) #5
  %10 = call ptr @PyEval_SaveThread()
  store ptr %10, ptr %8, align 8, !tbaa !14
  %11 = call i32 @PyTime_TimeRaw(ptr noundef %6)
  store i32 %11, ptr %7, align 4, !tbaa !12
  %12 = load ptr, ptr %8, align 8, !tbaa !14
  call void @PyEval_RestoreThread(ptr noundef %12)
  call void @llvm.lifetime.end.p0(i64 8, ptr %8) #5
  %13 = load i32, ptr %7, align 4, !tbaa !12
  %14 = icmp slt i32 %13, 0
  br i1 %14, label %15, label %23

15:                                               ; preds = %2
  %16 = load i64, ptr %6, align 8, !tbaa !8
  %17 = icmp eq i64 %16, 0
  br i1 %17, label %18, label %19

18:                                               ; preds = %15
  br label %21

19:                                               ; preds = %15
  call void @__assert_fail(ptr noundef @.str.12, ptr noundef @.str.13, i32 noundef 135, ptr noundef @__PRETTY_FUNCTION__.test_pytime_time_raw) #6
  unreachable

20:                                               ; No predecessors!
  br label %21

21:                                               ; preds = %20, %18
  %22 = load ptr, ptr @PyExc_RuntimeError, align 8, !tbaa !3
  call void @PyErr_SetString(ptr noundef %22, ptr noundef @.str.17)
  store ptr null, ptr %3, align 8
  store i32 1, ptr %9, align 4
  br label %32

23:                                               ; preds = %2
  %24 = load i32, ptr %7, align 4, !tbaa !12
  %25 = icmp eq i32 %24, 0
  br i1 %25, label %26, label %27

26:                                               ; preds = %23
  br label %29

27:                                               ; preds = %23
  call void @__assert_fail(ptr noundef @.str.14, ptr noundef @.str.13, i32 noundef 139, ptr noundef @__PRETTY_FUNCTION__.test_pytime_time_raw) #6
  unreachable

28:                                               ; No predecessors!
  br label %29

29:                                               ; preds = %28, %26
  %30 = load i64, ptr %6, align 8, !tbaa !8
  %31 = call ptr @pytime_as_float(i64 noundef %30)
  store ptr %31, ptr %3, align 8
  store i32 1, ptr %9, align 4
  br label %32

32:                                               ; preds = %29, %21
  call void @llvm.lifetime.end.p0(i64 4, ptr %7) #5
  call void @llvm.lifetime.end.p0(i64 8, ptr %6) #5
  %33 = load ptr, ptr %3, align 8
  ret ptr %33
}