; Function Attrs: nounwind uwtable
define internal ptr @test_pytime_time_raw(ptr readnone captures(none) %0, ptr readnone captures(none) %1) #0 {
  %3 = alloca i64, align 8
  call void @llvm.lifetime.start.p0(i64 8, ptr nonnull %3) #4
  %4 = tail call ptr @PyEval_SaveThread() #4
  %5 = call i32 @PyTime_TimeRaw(ptr noundef nonnull %3) #4
  call void @PyEval_RestoreThread(ptr noundef %4) #4
  %6 = icmp slt i32 %5, 0
  br i1 %6, label %7, label %13

7:                                                ; preds = %2
  %8 = load i64, ptr %3, align 8, !tbaa !22
  %9 = icmp eq i64 %8, 0
  br i1 %9, label %11, label %10

10:                                               ; preds = %7
  call void @__assert_fail(ptr noundef nonnull @.str.12, ptr noundef nonnull @.str.13, i32 noundef 135, ptr noundef nonnull @__PRETTY_FUNCTION__.test_pytime_time_raw) #5
  unreachable

11:                                               ; preds = %7
  %12 = load ptr, ptr @PyExc_RuntimeError, align 8, !tbaa !3
  call void @PyErr_SetString(ptr noundef %12, ptr noundef nonnull @.str.17) #4
  br label %20

13:                                               ; preds = %2
  %14 = icmp eq i32 %5, 0
  br i1 %14, label %16, label %15

15:                                               ; preds = %13
  call void @__assert_fail(ptr noundef nonnull @.str.14, ptr noundef nonnull @.str.13, i32 noundef 139, ptr noundef nonnull @__PRETTY_FUNCTION__.test_pytime_time_raw) #5
  unreachable

16:                                               ; preds = %13
  %17 = load i64, ptr %3, align 8, !tbaa !22
  %18 = call double @PyTime_AsSecondsDouble(i64 noundef %17) #4
  %19 = call ptr @PyFloat_FromDouble(double noundef %18) #4
  br label %20

20:                                               ; preds = %16, %11
  %.0 = phi ptr [ null, %11 ], [ %19, %16 ]
  call void @llvm.lifetime.end.p0(i64 8, ptr nonnull %3) #4
  ret ptr %.0
}